target datalayout = "e-m:e-p270:32:32-p271:32:32-p272:64:64-i64:64-i128:128-f80:128-n8:16:32:64-S128"
target triple = "x86_64-pc-linux-gnu"

%class.zstring = type { %class.buffer }
%class.buffer = type { ptr, i32, i32, [64 x i8] }

; Function Attrs: mustprogress nounwind uwtable
define linkonce_odr hidden noundef i32 @_ZNK6bufferIjLb1ELj16EE4sizeEv(ptr noundef nonnull align 8 dereferenceable(80) %0) #6 comdat align 2 {
  %2 = alloca ptr, align 8
  store ptr %0, ptr %2, align 8, !tbaa !21
  %3 = load ptr, ptr %2, align 8
  %4 = getelementptr inbounds nuw %class.buffer, ptr %3, i32 0, i32 1
  %5 = load i32, ptr %4, align 8, !tbaa !25
  ret i32 %5
}

; Function Attrs: mustprogress uwtable
define linkonce_odr hidden noundef i32 @_ZNK7zstringixEj(ptr noundef nonnull align 8 dereferenceable(80) %0, i32 noundef %1) #4 comdat align 2 {
  %3 = alloca ptr, align 8
  %4 = alloca i32, align 4
  store ptr %0, ptr %3, align 8, !tbaa !3
  store i32 %1, ptr %4, align 4, !tbaa !16
  %5 = load ptr, ptr %3, align 8
  %6 = getelementptr inbounds nuw %class.zstring, ptr %5, i32 0, i32 0
  %7 = load i32, ptr %4, align 4, !tbaa !16
  %8 = call noundef nonnull align 4 dereferenceable(4) ptr @_ZNK6bufferIjLb1ELj16EEixEj(ptr noundef nonnull align 8 dereferenceable(80) %6, i32 noundef %7)
  %9 = load i32, ptr %8, align 4, !tbaa !16
  ret i32 %9
}

; Function Attrs: mustprogress nounwind uwtable
define linkonce_odr hidden noundef nonnull align 4 dereferenceable(4) ptr @_ZNK6bufferIjLb1ELj16EEixEj(ptr noundef nonnull align 8 dereferenceable(80) %0, i32 noundef %1) #6 comdat align 2 {
  %3 = alloca ptr, align 8
  %4 = alloca i32, align 4
  store ptr %0, ptr %3, align 8, !tbaa !21
  store i32 %1, ptr %4, align 4, !tbaa !16
  %5 = load ptr, ptr %3, align 8
  %6 = getelementptr inbounds nuw %class.buffer, ptr %5, i32 0, i32 0
  %7 = load ptr, ptr %6, align 8, !tbaa !23
  %8 = load i32, ptr %4, align 4, !tbaa !16
  %9 = zext i32 %8 to i64
  %10 = getelementptr inbounds nuw i32, ptr %7, i64 %9
  ret ptr %10
}

; Function Attrs: mustprogress uwtable
define linkonce_odr hidden noundef i32 @_ZNK7zstring6lengthEv(ptr noundef nonnull align 8 dereferenceable(80) %0) #4 comdat align 2 {
  %2 = alloca ptr, align 8
  store ptr %0, ptr %2, align 8, !tbaa !3
  %3 = load ptr, ptr %2, align 8
  %4 = getelementptr inbounds nuw %class.zstring, ptr %3, i32 0, i32 0
  %5 = call noundef i32 @_ZNK6bufferIjLb1ELj16EE4sizeEv(ptr noundef nonnull align 8 dereferenceable(80) %4)
  ret i32 %5
}

; Function Attrs: mustprogress uwtable
define hidden noundef zeroext i1 @_ZNK7zstring8prefixofERKS_(ptr noundef nonnull align 8 dereferenceable(80) %0, ptr noundef nonnull align 8 dereferenceable(80) %1) #4 align 2 {
  %3 = alloca i1, align 1
  %4 = alloca ptr, align 8
  %5 = alloca ptr, align 8
  %6 = alloca i8, align 1
  %7 = alloca i32, align 4
  store ptr %0, ptr %4, align 8, !tbaa !3
  store ptr %1, ptr %5, align 8, !tbaa !3
  %8 = load ptr, ptr %4, align 8
  %9 = call noundef i32 @_ZNK7zstring6lengthEv(ptr noundef nonnull align 8 dereferenceable(80) %8)
  %10 = load ptr, ptr %5, align 8, !tbaa !3
  %11 = call noundef i32 @_ZNK7zstring6lengthEv(ptr noundef nonnull align 8 dereferenceable(80) %10)
  %12 = icmp ugt i32 %9, %11
  br i1 %12, label %13, label %14

13:                                               ; preds = %2
  store i1 false, ptr %3, align 1
  br label %41

14:                                               ; preds = %2
  call void @llvm.lifetime.start.p0(i64 1, ptr %6) #3
  store i8 1, ptr %6, align 1, !tbaa !34
  call void @llvm.lifetime.start.p0(i64 4, ptr %7) #3
  store i32 0, ptr %7, align 4, !tbaa !16
  br label %15

15:                                               ; preds = %35, %14
  %16 = load i8, ptr %6, align 1, !tbaa !34, !range !36, !noundef !37
  %17 = trunc i8 %16 to i1
  br i1 %17, label %18, label %22

18:                                               ; preds = %15
  %19 = load i32, ptr %7, align 4, !tbaa !16
  %20 = call noundef i32 @_ZNK7zstring6lengthEv(ptr noundef nonnull align 8 dereferenceable(80) %8)
  %21 = icmp ult i32 %19, %20
  br label %22

22:                                               ; preds = %18, %15
  %23 = phi i1 [ false, %15 ], [ %21, %18 ]
  br i1 %23, label %25, label %24

24:                                               ; preds = %22
  call void @llvm.lifetime.end.p0(i64 4, ptr %7) #3
  br label %38

25:                                               ; preds = %22
  %26 = getelementptr inbounds nuw %class.zstring, ptr %8, i32 0, i32 0
  %27 = load i32, ptr %7, align 4, !tbaa !16
  %28 = call noundef nonnull align 4 dereferenceable(4) ptr @_ZNK6bufferIjLb1ELj16EEixEj(ptr noundef nonnull align 8 dereferenceable(80) %26, i32 noundef %27)
  %29 = load i32, ptr %28, align 4, !tbaa !16
  %30 = load ptr, ptr %5, align 8, !tbaa !3
  %31 = load i32, ptr %7, align 4, !tbaa !16
  %32 = call noundef i32 @_ZNK7zstringixEj(ptr noundef nonnull align 8 dereferenceable(80) %30, i32 noundef %31)
  %33 = icmp eq i32 %29, %32
  %34 = zext i1 %33 to i8
  store i8 %34, ptr %6, align 1, !tbaa !34
  br label %35

35:                                               ; preds = %25
  %36 = load i32, ptr %7, align 4, !tbaa !16
  %37 = add i32 %36, 1
  store i32 %37, ptr %7, align 4, !tbaa !16
  br label %15, !llvm.loop !47

38:                                               ; preds = %24
  %39 = load i8, ptr %6, align 1, !tbaa !34, !range !36, !noundef !37
  %40 = trunc i8 %39 to i1
  store i1 %40, ptr %3, align 1
  call void @llvm.lifetime.end.p0(i64 1, ptr %6) #3
  br label %41

41:                                               ; preds = %38, %13
  %42 = load i1, ptr %3, align 1
  ret i1 %42
}