; Function Attrs: mustprogress nofree norecurse nosync nounwind willreturn memory(read, inaccessiblemem: none) uwtable
define hidden noundef zeroext i1 @_ZNK7zstring8prefixofERKS_(ptr noundef nonnull readonly align 8 captures(none) dereferenceable(80) %0, ptr noundef nonnull readonly align 8 captures(none) dereferenceable(80) %1) local_unnamed_addr #8 align 2 {
  %3 = getelementptr inbounds nuw i8, ptr %0, i64 8
  %4 = load i32, ptr %3, align 8, !tbaa !16
  %5 = getelementptr inbounds nuw i8, ptr %1, i64 8
  %6 = load i32, ptr %5, align 8, !tbaa !16
  %7 = icmp ugt i32 %4, %6
  br i1 %7, label %.critedge, label %.preheader

.preheader:                                       ; preds = %2
  %8 = load ptr, ptr %0, align 8
  %9 = load ptr, ptr %1, align 8
  %wide.trip.count = zext i32 %4 to i64
  br label %10

10:                                               ; preds = %.preheader, %11
  %indvars.iv = phi i64 [ 0, %.preheader ], [ %indvars.iv.next, %11 ]
  %exitcond.not = icmp eq i64 %indvars.iv, %wide.trip.count
  br i1 %exitcond.not, label %.critedge, label %11

11:                                               ; preds = %10
  %12 = getelementptr inbounds nuw i32, ptr %8, i64 %indvars.iv
  %13 = load i32, ptr %12, align 4, !tbaa !9
  %14 = getelementptr inbounds nuw i32, ptr %9, i64 %indvars.iv
  %15 = load i32, ptr %14, align 4, !tbaa !9
  %16 = icmp eq i32 %13, %15
  %indvars.iv.next = add nuw nsw i64 %indvars.iv, 1
  br i1 %16, label %10, label %.critedge, !llvm.loop !56

.critedge:                                        ; preds = %10, %11, %2
  %.010 = phi i1 [ false, %2 ], [ %exitcond.not, %11 ], [ %exitcond.not, %10 ]
  ret i1 %.010
}